; Function Attrs: nounwind uwtable
define dso_local void @advise_if_enabled(i32 noundef %0, ptr noundef %1, ...) local_unnamed_addr #0 {
  %3 = alloca [1 x %struct.__va_list_tag], align 16
  call void @llvm.lifetime.start.p0(i64 24, ptr nonnull %3) #12
  %4 = zext i32 %0 to i64
  %5 = getelementptr inbounds nuw [46 x %struct.anon], ptr @advice_setting, i64 0, i64 %4, i32 1
  %6 = load i32, ptr %5, align 8, !tbaa !18
  %7 = icmp ne i32 %6, 1
  %8 = load i32, ptr @advice_enabled.globally_enabled, align 4, !tbaa !14
  %9 = icmp slt i32 %8, 0
  br i1 %9, label %10, label %12

10:                                               ; preds = %2
  %11 = tail call i32 @git_env_bool(ptr noundef nonnull @.str.1, i32 noundef 1) #12
  store i32 %11, ptr @advice_enabled.globally_enabled, align 4, !tbaa !14
  br label %12

12:                                               ; preds = %10, %2
  %.pr.i = phi i32 [ %11, %10 ], [ %8, %2 ]
  %.not.i = icmp eq i32 %.pr.i, 0
  br i1 %.not.i, label %advice_enabled.exit.thread, label %13

13:                                               ; preds = %12
  %14 = icmp eq i32 %0, 25
  %brmerge.not.i = select i1 %14, i1 %7, i1 false
  %not..i = xor i1 %14, true
  %narrow.i = select i1 %not..i, i1 %7, i1 false
  br i1 %brmerge.not.i, label %15, label %advice_enabled.exit

15:                                               ; preds = %13
  %16 = load i32, ptr getelementptr inbounds nuw (i8, ptr @advice_setting, i64 424), align 8, !tbaa !18
  %17 = icmp ne i32 %16, 1
  %18 = icmp slt i32 %.pr.i, 0
  br i1 %18, label %19, label %advice_enabled.exit

19:                                               ; preds = %15
  %20 = tail call i32 @git_env_bool(ptr noundef nonnull @.str.1, i32 noundef 1) #12
  store i32 %20, ptr @advice_enabled.globally_enabled, align 4, !tbaa !14
  %21 = icmp ne i32 %20, 0
  %22 = select i1 %21, i1 %17, i1 false
  br i1 %22, label %23, label %advice_enabled.exit.thread

advice_enabled.exit:                              ; preds = %13, %15
  %.0.shrunk.i = phi i1 [ %narrow.i, %13 ], [ %17, %15 ]
  br i1 %.0.shrunk.i, label %23, label %advice_enabled.exit.thread

23:                                               ; preds = %19, %advice_enabled.exit
  call void @llvm.va_start.p0(ptr nonnull %3)
  %24 = getelementptr inbounds nuw [46 x %struct.anon], ptr @advice_setting, i64 0, i64 %4
  %25 = getelementptr inbounds nuw i8, ptr %24, i64 8
  %26 = load i32, ptr %25, align 8, !tbaa !18
  %.not3 = icmp eq i32 %26, 0
  %27 = zext i1 %.not3 to i32
  %28 = load ptr, ptr %24, align 16, !tbaa !20
  call fastcc void @vadvise(ptr noundef %1, i32 noundef %27, ptr noundef %28, ptr noundef %3)
  call void @llvm.va_end.p0(ptr nonnull %3)
  br label %advice_enabled.exit.thread

advice_enabled.exit.thread:                       ; preds = %19, %12, %advice_enabled.exit, %23
  call void @llvm.lifetime.end.p0(i64 24, ptr nonnull %3) #12
  ret void
}